target datalayout = "e-m:e-p270:32:32-p271:32:32-p272:64:64-i64:64-i128:128-f80:128-n8:16:32:64-S128"
target triple = "x86_64-pc-linux-gnu"

%struct.lua_TValue = type { %union.Value, [1 x i32], i32 }
%union.Value = type { ptr }
%struct.LuaTable = type { i8, i8, i8, i8, i8, i8, i8, i8, i32, %union.anon, ptr, ptr, ptr, ptr }
%union.anon = type { i32 }

@luaH_dummynode = dso_local constant { %struct.lua_TValue, { %union.Value, [1 x i32], i8, i8, i8, i8 } } zeroinitializer, align 8

; Function Attrs: mustprogress uwtable
define hidden void @_Z9luaH_freeP9lua_StateP8LuaTableP8lua_Page(ptr noundef %0, ptr noundef %1, ptr noundef %2) #0 {
  %4 = alloca ptr, align 8
  %5 = alloca ptr, align 8
  %6 = alloca ptr, align 8
  store ptr %0, ptr %4, align 8, !tbaa !4
  store ptr %1, ptr %5, align 8, !tbaa !9
  store ptr %2, ptr %6, align 8, !tbaa !73
  %7 = load ptr, ptr %5, align 8, !tbaa !9
  %8 = getelementptr inbounds nuw %struct.LuaTable, ptr %7, i32 0, i32 12
  %9 = load ptr, ptr %8, align 8, !tbaa !27
  %10 = icmp ne ptr %9, @luaH_dummynode
  br i1 %10, label %11, label %26

11:                                               ; preds = %3
  %12 = load ptr, ptr %4, align 8, !tbaa !4
  %13 = load ptr, ptr %5, align 8, !tbaa !9
  %14 = getelementptr inbounds nuw %struct.LuaTable, ptr %13, i32 0, i32 12
  %15 = load ptr, ptr %14, align 8, !tbaa !27
  %16 = load ptr, ptr %5, align 8, !tbaa !9
  %17 = getelementptr inbounds nuw %struct.LuaTable, ptr %16, i32 0, i32 6
  %18 = load i8, ptr %17, align 2, !tbaa !26
  %19 = zext i8 %18 to i32
  %20 = shl i32 1, %19
  %21 = sext i32 %20 to i64
  %22 = mul i64 %21, 32
  %23 = load ptr, ptr %5, align 8, !tbaa !9
  %24 = getelementptr inbounds nuw %struct.LuaTable, ptr %23, i32 0, i32 2
  %25 = load i8, ptr %24, align 2, !tbaa !41
  call void @_Z10luaM_free_P9lua_StatePvmh(ptr noundef %12, ptr noundef %15, i64 noundef %22, i8 noundef zeroext %25)
  br label %26

26:                                               ; preds = %11, %3
  %27 = load ptr, ptr %5, align 8, !tbaa !9
  %28 = getelementptr inbounds nuw %struct.LuaTable, ptr %27, i32 0, i32 11
  %29 = load ptr, ptr %28, align 8, !tbaa !19
  %30 = icmp ne ptr %29, null
  br i1 %30, label %31, label %44

31:                                               ; preds = %26
  %32 = load ptr, ptr %4, align 8, !tbaa !4
  %33 = load ptr, ptr %5, align 8, !tbaa !9
  %34 = getelementptr inbounds nuw %struct.LuaTable, ptr %33, i32 0, i32 11
  %35 = load ptr, ptr %34, align 8, !tbaa !19
  %36 = load ptr, ptr %5, align 8, !tbaa !9
  %37 = getelementptr inbounds nuw %struct.LuaTable, ptr %36, i32 0, i32 8
  %38 = load i32, ptr %37, align 8, !tbaa !15
  %39 = sext i32 %38 to i64
  %40 = mul i64 %39, 16
  %41 = load ptr, ptr %5, align 8, !tbaa !9
  %42 = getelementptr inbounds nuw %struct.LuaTable, ptr %41, i32 0, i32 2
  %43 = load i8, ptr %42, align 2, !tbaa !41
  call void @_Z10luaM_free_P9lua_StatePvmh(ptr noundef %32, ptr noundef %35, i64 noundef %40, i8 noundef zeroext %43)
  br label %44

44:                                               ; preds = %31, %26
  %45 = load ptr, ptr %4, align 8, !tbaa !4
  %46 = load ptr, ptr %5, align 8, !tbaa !9
  %47 = getelementptr inbounds %struct.LuaTable, ptr %46, i64 0
  %48 = load ptr, ptr %5, align 8, !tbaa !9
  %49 = getelementptr inbounds nuw %struct.LuaTable, ptr %48, i32 0, i32 2
  %50 = load i8, ptr %49, align 2, !tbaa !41
  %51 = load ptr, ptr %6, align 8, !tbaa !73
  call void @_Z13luaM_freegco_P9lua_StateP8GCObjectmhP8lua_Page(ptr noundef %45, ptr noundef %47, i64 noundef 48, i8 noundef zeroext %50, ptr noundef %51)
  ret void
}