; Function Attrs: mustprogress uwtable
define hidden void @_Z9luaH_freeP9lua_StateP8LuaTableP8lua_Page(ptr noundef %0, ptr noundef %1, ptr noundef %2) local_unnamed_addr #0 {
  %4 = getelementptr inbounds nuw i8, ptr %1, i64 32
  %5 = load ptr, ptr %4, align 8, !tbaa !17
  %.not = icmp eq ptr %5, @luaH_dummynode
  br i1 %.not, label %15, label %6

6:                                                ; preds = %3
  %7 = getelementptr inbounds nuw i8, ptr %1, i64 6
  %8 = load i8, ptr %7, align 2, !tbaa !22
  %9 = zext nneg i8 %8 to i32
  %10 = shl nuw i32 1, %9
  %11 = sext i32 %10 to i64
  %12 = shl nsw i64 %11, 5
  %13 = getelementptr inbounds nuw i8, ptr %1, i64 2
  %14 = load i8, ptr %13, align 2, !tbaa !29
  tail call void @_Z10luaM_free_P9lua_StatePvmh(ptr noundef %0, ptr noundef %5, i64 noundef %12, i8 noundef zeroext %14)
  br label %15

15:                                               ; preds = %6, %3
  %16 = getelementptr inbounds nuw i8, ptr %1, i64 24
  %17 = load ptr, ptr %16, align 8, !tbaa !20
  %.not15 = icmp eq ptr %17, null
  br i1 %.not15, label %25, label %18

18:                                               ; preds = %15
  %19 = getelementptr inbounds nuw i8, ptr %1, i64 8
  %20 = load i32, ptr %19, align 8, !tbaa !9
  %21 = sext i32 %20 to i64
  %22 = shl nsw i64 %21, 4
  %23 = getelementptr inbounds nuw i8, ptr %1, i64 2
  %24 = load i8, ptr %23, align 2, !tbaa !29
  tail call void @_Z10luaM_free_P9lua_StatePvmh(ptr noundef %0, ptr noundef nonnull %17, i64 noundef %22, i8 noundef zeroext %24)
  br label %25

25:                                               ; preds = %18, %15
  %26 = getelementptr inbounds nuw i8, ptr %1, i64 2
  %27 = load i8, ptr %26, align 2, !tbaa !29
  tail call void @_Z13luaM_freegco_P9lua_StateP8GCObjectmhP8lua_Page(ptr noundef %0, ptr noundef nonnull %1, i64 noundef 48, i8 noundef zeroext %27, ptr noundef %2)
  ret void
}